; Function Attrs: mustprogress uwtable
define void @_ZN5boost6locale4util11locale_data5resetEv(ptr noundef nonnull align 8 dereferenceable(129) %0) local_unnamed_addr #0 align 2 {
  %2 = getelementptr inbounds nuw i8, ptr %0, i64 8
  %3 = load i64, ptr %2, align 8, !tbaa !8
  %4 = tail call noundef nonnull align 8 dereferenceable(32) ptr @_ZNSt7__cxx1112basic_stringIcSt11char_traitsIcESaIcEE10_M_replaceEmmPKcm(ptr noundef nonnull align 8 dereferenceable(32) %0, i64 noundef 0, i64 noundef %3, ptr noundef nonnull @.str.1, i64 noundef 1)
  %5 = getelementptr inbounds nuw i8, ptr %0, i64 32
  %6 = getelementptr inbounds nuw i8, ptr %0, i64 40
  store i64 0, ptr %6, align 8, !tbaa !8
  %7 = load ptr, ptr %5, align 8, !tbaa !12
  store i8 0, ptr %7, align 1, !tbaa !11
  %8 = getelementptr inbounds nuw i8, ptr %0, i64 64
  %9 = getelementptr inbounds nuw i8, ptr %0, i64 72
  %10 = load i64, ptr %9, align 8, !tbaa !8
  %11 = tail call noundef nonnull align 8 dereferenceable(32) ptr @_ZNSt7__cxx1112basic_stringIcSt11char_traitsIcESaIcEE10_M_replaceEmmPKcm(ptr noundef nonnull align 8 dereferenceable(32) %8, i64 noundef 0, i64 noundef %10, ptr noundef nonnull @.str.2, i64 noundef 8)
  %12 = getelementptr inbounds nuw i8, ptr %0, i64 96
  %13 = getelementptr inbounds nuw i8, ptr %0, i64 104
  store i64 0, ptr %13, align 8, !tbaa !8
  %14 = load ptr, ptr %12, align 8, !tbaa !12
  store i8 0, ptr %14, align 1, !tbaa !11
  %15 = getelementptr inbounds nuw i8, ptr %0, i64 128
  store i8 0, ptr %15, align 8, !tbaa !13
  ret void
}